target datalayout = "e-m:e-p270:32:32-p271:32:32-p272:64:64-i64:64-i128:128-f80:128-n8:16:32:64-S128"
target triple = "x86_64-pc-linux-gnu"

%struct.t_inputrec = type { i32, i32, i64, i32, i64, i32, i32, i32, i32, i32, i32, i32, i32, i32, i32, i32, double, double, i8, %"class.std::vector", float, float, float, i32, i32, i32, i32, float, float, i32, float, i32, i32, i8, i8, i32, float, i32, i32, i8, %struct.PressureCouplingOptions, %"class.std::vector.3", %"class.std::vector.3", i32, float, float, float, float, i32, i32, float, float, float, float, i8, i32, i32, float, float, i32, float, float, i32, %"class.std::unique_ptr", i8, %"class.std::unique_ptr.10", i8, %"class.std::unique_ptr.18", i32, float, i32, i8, i32, float, float, float, i32, float, float, i32, float, i32, i32, i32, i32, float, i32, i8, float, i64, i32, i32, float, [2 x i32], [2 x float], float, i8, %"class.std::unique_ptr.26", i8, %"class.std::unique_ptr.34", i8, %"class.std::unique_ptr.42", i32, ptr, i8, ptr, float, [3 x [3 x float]], i32, i32, i32, i32, float, float, float, float, %struct.t_grpopts, i8, i8, i8, i8, ptr, %"class.std::unique_ptr.50" }
%"class.std::vector" = type { %"struct.std::_Vector_base" }
%"struct.std::_Vector_base" = type { %"struct.std::_Vector_base<gmx::MtsLevel, std::allocator<gmx::MtsLevel>>::_Vector_impl" }
%"struct.std::_Vector_base<gmx::MtsLevel, std::allocator<gmx::MtsLevel>>::_Vector_impl" = type { %"struct.std::_Vector_base<gmx::MtsLevel, std::allocator<gmx::MtsLevel>>::_Vector_impl_data" }
%"struct.std::_Vector_base<gmx::MtsLevel, std::allocator<gmx::MtsLevel>>::_Vector_impl_data" = type { ptr, ptr, ptr }
%struct.PressureCouplingOptions = type { i32, i32, i32, float, [3 x [3 x float]], [3 x [3 x float]], i32 }
%"class.std::vector.3" = type { %"struct.std::_Vector_base.4" }
%"struct.std::_Vector_base.4" = type { %"struct.std::_Vector_base<gmx::BasicVector<float>, std::allocator<gmx::BasicVector<float>>>::_Vector_impl" }
%"struct.std::_Vector_base<gmx::BasicVector<float>, std::allocator<gmx::BasicVector<float>>>::_Vector_impl" = type { %"struct.std::_Vector_base<gmx::BasicVector<float>, std::allocator<gmx::BasicVector<float>>>::_Vector_impl_data" }
%"struct.std::_Vector_base<gmx::BasicVector<float>, std::allocator<gmx::BasicVector<float>>>::_Vector_impl_data" = type { ptr, ptr, ptr }
%"class.std::unique_ptr" = type { %"struct.std::__uniq_ptr_data" }
%"struct.std::__uniq_ptr_data" = type { %"class.std::__uniq_ptr_impl" }
%"class.std::__uniq_ptr_impl" = type { %"class.std::tuple" }
%"class.std::tuple" = type { %"struct.std::_Tuple_impl" }
%"struct.std::_Tuple_impl" = type { %"struct.std::_Head_base.9" }
%"struct.std::_Head_base.9" = type { ptr }
%"class.std::unique_ptr.10" = type { %"struct.std::__uniq_ptr_data.11" }
%"struct.std::__uniq_ptr_data.11" = type { %"class.std::__uniq_ptr_impl.12" }
%"class.std::__uniq_ptr_impl.12" = type { %"class.std::tuple.13" }
%"class.std::tuple.13" = type { %"struct.std::_Tuple_impl.14" }
%"struct.std::_Tuple_impl.14" = type { %"struct.std::_Head_base.17" }
%"struct.std::_Head_base.17" = type { ptr }
%"class.std::unique_ptr.18" = type { %"struct.std::__uniq_ptr_data.19" }
%"struct.std::__uniq_ptr_data.19" = type { %"class.std::__uniq_ptr_impl.20" }
%"class.std::__uniq_ptr_impl.20" = type { %"class.std::tuple.21" }
%"class.std::tuple.21" = type { %"struct.std::_Tuple_impl.22" }
%"struct.std::_Tuple_impl.22" = type { %"struct.std::_Head_base.25" }
%"struct.std::_Head_base.25" = type { ptr }
%"class.std::unique_ptr.26" = type { %"struct.std::__uniq_ptr_data.27" }
%"struct.std::__uniq_ptr_data.27" = type { %"class.std::__uniq_ptr_impl.28" }
%"class.std::__uniq_ptr_impl.28" = type { %"class.std::tuple.29" }
%"class.std::tuple.29" = type { %"struct.std::_Tuple_impl.30" }
%"struct.std::_Tuple_impl.30" = type { %"struct.std::_Head_base.33" }
%"struct.std::_Head_base.33" = type { ptr }
%"class.std::unique_ptr.34" = type { %"struct.std::__uniq_ptr_data.35" }
%"struct.std::__uniq_ptr_data.35" = type { %"class.std::__uniq_ptr_impl.36" }
%"class.std::__uniq_ptr_impl.36" = type { %"class.std::tuple.37" }
%"class.std::tuple.37" = type { %"struct.std::_Tuple_impl.38" }
%"struct.std::_Tuple_impl.38" = type { %"struct.std::_Head_base.41" }
%"struct.std::_Head_base.41" = type { ptr }
%"class.std::unique_ptr.42" = type { %"struct.std::__uniq_ptr_data.43" }
%"struct.std::__uniq_ptr_data.43" = type { %"class.std::__uniq_ptr_impl.44" }
%"class.std::__uniq_ptr_impl.44" = type { %"class.std::tuple.45" }
%"class.std::tuple.45" = type { %"struct.std::_Tuple_impl.46" }
%"struct.std::_Tuple_impl.46" = type { %"struct.std::_Head_base.49" }
%"struct.std::_Head_base.49" = type { ptr }
%struct.t_grpopts = type <{ i32, i32, i32, i32, i32, [4 x i8], ptr, ptr, ptr, ptr, ptr, ptr, ptr, ptr, ptr, ptr, i32, [4 x i8] }>
%"class.std::unique_ptr.50" = type { %"struct.std::__uniq_ptr_data.51" }
%"struct.std::__uniq_ptr_data.51" = type { %"class.std::__uniq_ptr_impl.52" }
%"class.std::__uniq_ptr_impl.52" = type { %"class.std::tuple.53" }
%"class.std::tuple.53" = type { %"struct.std::_Tuple_impl.54" }
%"struct.std::_Tuple_impl.54" = type { %"struct.std::_Head_base.57" }
%"struct.std::_Head_base.57" = type { ptr }

; Function Attrs: mustprogress nounwind uwtable
define noundef zeroext i1 @_Z36integratorHasConservedEnergyQuantityPK10t_inputrec(ptr noundef %0) #2 {
  %2 = alloca i1, align 1
  %3 = alloca ptr, align 8
  %4 = alloca i8, align 1
  store ptr %0, ptr %3, align 8, !tbaa !34
  %5 = load ptr, ptr %3, align 8, !tbaa !34
  %6 = getelementptr inbounds nuw %struct.t_inputrec, ptr %5, i32 0, i32 1
  %7 = load i32, ptr %6, align 4, !tbaa !129
  %8 = icmp eq i32 %7, 0
  br i1 %8, label %25, label %9

9:                                                ; preds = %1
  %10 = load ptr, ptr %3, align 8, !tbaa !34
  %11 = getelementptr inbounds nuw %struct.t_inputrec, ptr %10, i32 0, i32 1
  %12 = load i32, ptr %11, align 4, !tbaa !129
  %13 = icmp eq i32 %12, 10
  br i1 %13, label %25, label %14

14:                                               ; preds = %9
  %15 = load ptr, ptr %3, align 8, !tbaa !34
  %16 = getelementptr inbounds nuw %struct.t_inputrec, ptr %15, i32 0, i32 1
  %17 = load i32, ptr %16, align 4, !tbaa !129
  %18 = icmp eq i32 %17, 11
  br i1 %18, label %25, label %19

19:                                               ; preds = %14
  %20 = load ptr, ptr %3, align 8, !tbaa !34
  %21 = getelementptr inbounds nuw %struct.t_inputrec, ptr %20, i32 0, i32 1
  %22 = load i32, ptr %21, align 4, !tbaa !129
  %23 = icmp eq i32 %22, 12
  br i1 %23, label %25, label %24

24:                                               ; preds = %19
  store i1 false, ptr %2, align 1
  br label %93

25:                                               ; preds = %19, %14, %9, %1
  %26 = load ptr, ptr %3, align 8, !tbaa !34
  %27 = getelementptr inbounds nuw %struct.t_inputrec, ptr %26, i32 0, i32 37
  %28 = load i32, ptr %27, align 8, !tbaa !162
  %29 = icmp eq i32 %28, 0
  br i1 %29, label %30, label %37

30:                                               ; preds = %25
  %31 = load ptr, ptr %3, align 8, !tbaa !34
  %32 = getelementptr inbounds nuw %struct.t_inputrec, ptr %31, i32 0, i32 40
  %33 = getelementptr inbounds nuw %struct.PressureCouplingOptions, ptr %32, i32 0, i32 0
  %34 = load i32, ptr %33, align 4, !tbaa !748
  %35 = icmp eq i32 %34, 0
  br i1 %35, label %36, label %37

36:                                               ; preds = %30
  store i1 false, ptr %2, align 1
  br label %93

37:                                               ; preds = %30, %25
  call void @llvm.lifetime.start.p0(i64 1, ptr %4) #5
  %38 = load ptr, ptr %3, align 8, !tbaa !34
  %39 = getelementptr inbounds nuw %struct.t_inputrec, ptr %38, i32 0, i32 40
  %40 = getelementptr inbounds nuw %struct.PressureCouplingOptions, ptr %39, i32 0, i32 0
  %41 = load i32, ptr %40, align 4, !tbaa !748
  %42 = icmp eq i32 %41, 2
  br i1 %42, label %49, label %43

43:                                               ; preds = %37
  %44 = load ptr, ptr %3, align 8, !tbaa !34
  %45 = getelementptr inbounds nuw %struct.t_inputrec, ptr %44, i32 0, i32 40
  %46 = getelementptr inbounds nuw %struct.PressureCouplingOptions, ptr %45, i32 0, i32 0
  %47 = load i32, ptr %46, align 4, !tbaa !748
  %48 = icmp eq i32 %47, 4
  br i1 %48, label %49, label %75

49:                                               ; preds = %43, %37
  %50 = load ptr, ptr %3, align 8, !tbaa !34
  %51 = getelementptr inbounds nuw %struct.t_inputrec, ptr %50, i32 0, i32 40
  %52 = getelementptr inbounds nuw %struct.PressureCouplingOptions, ptr %51, i32 0, i32 4
  %53 = getelementptr inbounds [3 x [3 x float]], ptr %52, i64 0, i64 1
  %54 = getelementptr inbounds [3 x float], ptr %53, i64 0, i64 0
  %55 = load float, ptr %54, align 4, !tbaa !213
  %56 = fcmp une float %55, 0.000000e+00
  br i1 %56, label %73, label %57

57:                                               ; preds = %49
  %58 = load ptr, ptr %3, align 8, !tbaa !34
  %59 = getelementptr inbounds nuw %struct.t_inputrec, ptr %58, i32 0, i32 40
  %60 = getelementptr inbounds nuw %struct.PressureCouplingOptions, ptr %59, i32 0, i32 4
  %61 = getelementptr inbounds [3 x [3 x float]], ptr %60, i64 0, i64 2
  %62 = getelementptr inbounds [3 x float], ptr %61, i64 0, i64 0
  %63 = load float, ptr %62, align 4, !tbaa !213
  %64 = fcmp une float %63, 0.000000e+00
  br i1 %64, label %73, label %65

65:                                               ; preds = %57
  %66 = load ptr, ptr %3, align 8, !tbaa !34
  %67 = getelementptr inbounds nuw %struct.t_inputrec, ptr %66, i32 0, i32 40
  %68 = getelementptr inbounds nuw %struct.PressureCouplingOptions, ptr %67, i32 0, i32 4
  %69 = getelementptr inbounds [3 x [3 x float]], ptr %68, i64 0, i64 2
  %70 = getelementptr inbounds [3 x float], ptr %69, i64 0, i64 1
  %71 = load float, ptr %70, align 4, !tbaa !213
  %72 = fcmp une float %71, 0.000000e+00
  br label %73

73:                                               ; preds = %65, %57, %49
  %74 = phi i1 [ true, %57 ], [ true, %49 ], [ %72, %65 ]
  br label %75

75:                                               ; preds = %73, %43
  %76 = phi i1 [ false, %43 ], [ %74, %73 ]
  %77 = zext i1 %76 to i8
  store i8 %77, ptr %4, align 1, !tbaa !793
  %78 = load ptr, ptr %3, align 8, !tbaa !34
  %79 = getelementptr inbounds nuw %struct.t_inputrec, ptr %78, i32 0, i32 37
  %80 = load i32, ptr %79, align 8, !tbaa !162
  %81 = icmp eq i32 %80, 5
  br i1 %81, label %91, label %82

82:                                               ; preds = %75
  %83 = load ptr, ptr %3, align 8, !tbaa !34
  %84 = getelementptr inbounds nuw %struct.t_inputrec, ptr %83, i32 0, i32 37
  %85 = load i32, ptr %84, align 8, !tbaa !162
  %86 = icmp eq i32 %85, 4
  br i1 %86, label %91, label %87

87:                                               ; preds = %82
  %88 = load i8, ptr %4, align 1, !tbaa !793, !range !749, !noundef !750
  %89 = trunc i8 %88 to i1
  %90 = xor i1 %89, true
  br label %91

91:                                               ; preds = %87, %82, %75
  %92 = phi i1 [ false, %82 ], [ false, %75 ], [ %90, %87 ]
  store i1 %92, ptr %2, align 1
  call void @llvm.lifetime.end.p0(i64 1, ptr %4) #5
  br label %93

93:                                               ; preds = %91, %36, %24
  %94 = load i1, ptr %2, align 1
  ret i1 %94
}