; Function Attrs: mustprogress nofree norecurse nosync nounwind willreturn memory(argmem: read) uwtable
define noundef zeroext i1 @_Z36integratorHasConservedEnergyQuantityPK10t_inputrec(ptr noundef readonly captures(none) %0) local_unnamed_addr #15 {
  %2 = getelementptr inbounds nuw i8, ptr %0, i64 4
  %3 = load i32, ptr %2, align 4, !tbaa !265
  switch i32 %3, label %26 [
    i32 0, label %4
    i32 10, label %4
    i32 11, label %4
    i32 12, label %4
  ]

4:                                                ; preds = %1, %1, %1, %1
  %5 = getelementptr inbounds nuw i8, ptr %0, i64 192
  %6 = load i32, ptr %5, align 8, !tbaa !242
  %7 = icmp eq i32 %6, 0
  %8 = getelementptr inbounds nuw i8, ptr %0, i64 204
  %9 = load i32, ptr %8, align 4, !tbaa !247
  %10 = icmp eq i32 %9, 0
  %or.cond = select i1 %7, i1 %10, i1 false
  br i1 %or.cond, label %26, label %._crit_edge

._crit_edge:                                      ; preds = %4
  switch i32 %9, label %23 [
    i32 2, label %11
    i32 4, label %11
  ]

11:                                               ; preds = %._crit_edge, %._crit_edge
  %12 = getelementptr inbounds nuw i8, ptr %0, i64 232
  %13 = load float, ptr %12, align 4, !tbaa !243
  %14 = fcmp une float %13, 0.000000e+00
  br i1 %14, label %23, label %15

15:                                               ; preds = %11
  %16 = getelementptr inbounds nuw i8, ptr %0, i64 244
  %17 = load float, ptr %16, align 4, !tbaa !243
  %18 = fcmp une float %17, 0.000000e+00
  br i1 %18, label %23, label %19

19:                                               ; preds = %15
  %20 = getelementptr inbounds nuw i8, ptr %0, i64 248
  %21 = load float, ptr %20, align 4, !tbaa !243
  %22 = fcmp oeq float %21, 0.000000e+00
  br label %23

23:                                               ; preds = %._crit_edge, %11, %15, %19
  %24 = phi i1 [ false, %15 ], [ false, %11 ], [ %22, %19 ], [ true, %._crit_edge ]
  %25 = and i32 %6, -2
  %switch = icmp ne i32 %25, 4
  %spec.select = select i1 %switch, i1 %24, i1 false
  br label %26

26:                                               ; preds = %4, %23, %1
  %.0 = phi i1 [ false, %1 ], [ %spec.select, %23 ], [ false, %4 ]
  ret i1 %.0
}